target datalayout = "e-m:e-p270:32:32-p271:32:32-p272:64:64-i64:64-i128:128-f80:128-n8:16:32:64-S128"
target triple = "x86_64-pc-linux-gnu"

%struct.AVCodecContext = type { ptr, i32, i32, ptr, i32, i32, ptr, ptr, ptr, i64, i32, i32, ptr, i32, %struct.AVRational, %struct.AVRational, %struct.AVRational, i32, i32, i32, i32, i32, %struct.AVRational, i32, i32, i32, i32, i32, i32, i32, i32, i32, i32, i32, ptr, ptr, i32, float, float, float, float, float, float, float, float, float, i32, i32, i32, i32, i32, i32, i32, i32, i32, i32, i32, i32, ptr, ptr, ptr, i32, i32, i32, i32, i32, i32, i32, i32, i32, i32, %struct.AVChannelLayout, i32, i32, i32, i32, i32, i32, i32, i32, ptr, i32, i32, i32, float, float, i32, i32, i32, i32, i32, ptr, i64, i64, float, float, i32, i32, ptr, ptr, i32, i32, i32, i32, i32, ptr, ptr, ptr, ptr, i32, i32, [8 x i64], i32, i32, i32, i32, i32, i32, i32, ptr, ptr, i32, i32, i32, i32, i32, i32, i32, i32, i32, i32, ptr, ptr, i32, i32, ptr, ptr, ptr, ptr, i32, i32, i64, i32, i32, i64, ptr, i64, ptr, i32, ptr, i32 }
%struct.AVRational = type { i32, i32 }
%struct.AVChannelLayout = type { i32, i32, %union.anon.0, ptr }
%union.anon.0 = type { i64 }

@.str.3 = private unnamed_addr constant [7 x i8] c"(c)CRI\00", align 1
@.str.4 = private unnamed_addr constant [28 x i8] c"Support for this ADX format\00", align 1

; Function Attrs: alwaysinline nounwind willreturn memory(none) uwtable
define internal i32 @av_bswap32(i32 noundef %0) #4 {
  %2 = alloca i32, align 4
  store i32 %0, ptr %2, align 4, !tbaa !33
  %3 = load i32, ptr %2, align 4, !tbaa !33
  %4 = shl i32 %3, 8
  %5 = and i32 %4, 65280
  %6 = load i32, ptr %2, align 4, !tbaa !33
  %7 = lshr i32 %6, 8
  %8 = and i32 %7, 255
  %9 = or i32 %5, %8
  %10 = shl i32 %9, 16
  %11 = load i32, ptr %2, align 4, !tbaa !33
  %12 = lshr i32 %11, 16
  %13 = shl i32 %12, 8
  %14 = and i32 %13, 65280
  %15 = load i32, ptr %2, align 4, !tbaa !33
  %16 = lshr i32 %15, 16
  %17 = lshr i32 %16, 8
  %18 = and i32 %17, 255
  %19 = or i32 %14, %18
  %20 = or i32 %10, %19
  ret i32 %20
}

; Function Attrs: alwaysinline nounwind willreturn memory(none) uwtable
define internal zeroext i16 @av_bswap16(i16 noundef zeroext %0) #4 {
  %2 = alloca i16, align 2
  store i16 %0, ptr %2, align 2, !tbaa !66
  %3 = load i16, ptr %2, align 2, !tbaa !66
  %4 = zext i16 %3 to i32
  %5 = ashr i32 %4, 8
  %6 = load i16, ptr %2, align 2, !tbaa !66
  %7 = zext i16 %6 to i32
  %8 = shl i32 %7, 8
  %9 = or i32 %5, %8
  %10 = trunc i32 %9 to i16
  store i16 %10, ptr %2, align 2, !tbaa !66
  %11 = load i16, ptr %2, align 2, !tbaa !66
  ret i16 %11
}

; Function Attrs: nounwind uwtable
define internal i32 @adx_decode_header(ptr noundef %0, ptr noundef %1, i32 noundef %2, ptr noundef %3, ptr noundef %4) #1 {
  %6 = alloca i32, align 4
  %7 = alloca ptr, align 8
  %8 = alloca ptr, align 8
  %9 = alloca i32, align 4
  %10 = alloca ptr, align 8
  %11 = alloca ptr, align 8
  %12 = alloca i32, align 4
  %13 = alloca i32, align 4
  %14 = alloca i32, align 4
  %15 = alloca i32, align 4
  store ptr %0, ptr %7, align 8, !tbaa !4
  store ptr %1, ptr %8, align 8, !tbaa !47
  store i32 %2, ptr %9, align 4, !tbaa !33
  store ptr %3, ptr %10, align 8, !tbaa !41
  store ptr %4, ptr %11, align 8, !tbaa !41
  call void @llvm.lifetime.start.p0(i64 4, ptr %12) #8
  call void @llvm.lifetime.start.p0(i64 4, ptr %13) #8
  call void @llvm.lifetime.start.p0(i64 4, ptr %14) #8
  %16 = load i32, ptr %9, align 4, !tbaa !33
  %17 = icmp slt i32 %16, 24
  br i1 %17, label %18, label %19

18:                                               ; preds = %5
  store i32 -1094995529, ptr %6, align 4
  store i32 1, ptr %15, align 4
  br label %145

19:                                               ; preds = %5
  %20 = load ptr, ptr %8, align 8, !tbaa !47
  %21 = load i16, ptr %20, align 1, !tbaa !50
  %22 = call zeroext i16 @av_bswap16(i16 noundef zeroext %21) #9
  %23 = zext i16 %22 to i32
  %24 = icmp ne i32 %23, 32768
  br i1 %24, label %25, label %26

25:                                               ; preds = %19
  store i32 -1094995529, ptr %6, align 4
  store i32 1, ptr %15, align 4
  br label %145

26:                                               ; preds = %19
  %27 = load ptr, ptr %8, align 8, !tbaa !47
  %28 = getelementptr inbounds i8, ptr %27, i64 2
  %29 = load i16, ptr %28, align 1, !tbaa !50
  %30 = call zeroext i16 @av_bswap16(i16 noundef zeroext %29) #9
  %31 = zext i16 %30 to i32
  %32 = add nsw i32 %31, 4
  store i32 %32, ptr %12, align 4, !tbaa !33
  %33 = load i32, ptr %9, align 4, !tbaa !33
  %34 = load i32, ptr %12, align 4, !tbaa !33
  %35 = icmp sge i32 %33, %34
  br i1 %35, label %36, label %48

36:                                               ; preds = %26
  %37 = load i32, ptr %12, align 4, !tbaa !33
  %38 = icmp sge i32 %37, 6
  br i1 %38, label %39, label %48

39:                                               ; preds = %36
  %40 = load ptr, ptr %8, align 8, !tbaa !47
  %41 = load i32, ptr %12, align 4, !tbaa !33
  %42 = sext i32 %41 to i64
  %43 = getelementptr inbounds i8, ptr %40, i64 %42
  %44 = getelementptr inbounds i8, ptr %43, i64 -6
  %45 = call i32 @memcmp(ptr noundef %44, ptr noundef @.str.3, i64 noundef 6) #10
  %46 = icmp ne i32 %45, 0
  br i1 %46, label %47, label %48

47:                                               ; preds = %39
  store i32 -1094995529, ptr %6, align 4
  store i32 1, ptr %15, align 4
  br label %145

48:                                               ; preds = %39, %36, %26
  %49 = load ptr, ptr %8, align 8, !tbaa !47
  %50 = getelementptr inbounds i8, ptr %49, i64 4
  %51 = load i8, ptr %50, align 1, !tbaa !50
  %52 = zext i8 %51 to i32
  %53 = icmp ne i32 %52, 3
  br i1 %53, label %66, label %54

54:                                               ; preds = %48
  %55 = load ptr, ptr %8, align 8, !tbaa !47
  %56 = getelementptr inbounds i8, ptr %55, i64 5
  %57 = load i8, ptr %56, align 1, !tbaa !50
  %58 = zext i8 %57 to i32
  %59 = icmp ne i32 %58, 18
  br i1 %59, label %66, label %60

60:                                               ; preds = %54
  %61 = load ptr, ptr %8, align 8, !tbaa !47
  %62 = getelementptr inbounds i8, ptr %61, i64 6
  %63 = load i8, ptr %62, align 1, !tbaa !50
  %64 = zext i8 %63 to i32
  %65 = icmp ne i32 %64, 4
  br i1 %65, label %66, label %68

66:                                               ; preds = %60, %54, %48
  %67 = load ptr, ptr %7, align 8, !tbaa !4
  call void (ptr, ptr, ...) @avpriv_request_sample(ptr noundef %67, ptr noundef @.str.4)
  store i32 -1163346256, ptr %6, align 4
  store i32 1, ptr %15, align 4
  br label %145

68:                                               ; preds = %60
  %69 = load ptr, ptr %8, align 8, !tbaa !47
  %70 = getelementptr inbounds i8, ptr %69, i64 7
  %71 = load i8, ptr %70, align 1, !tbaa !50
  %72 = zext i8 %71 to i32
  store i32 %72, ptr %14, align 4, !tbaa !33
  %73 = load i32, ptr %14, align 4, !tbaa !33
  %74 = icmp sle i32 %73, 0
  br i1 %74, label %78, label %75

75:                                               ; preds = %68
  %76 = load i32, ptr %14, align 4, !tbaa !33
  %77 = icmp sgt i32 %76, 6
  br i1 %77, label %78, label %79

78:                                               ; preds = %75, %68
  store i32 -1094995529, ptr %6, align 4
  store i32 1, ptr %15, align 4
  br label %145

79:                                               ; preds = %75
  %80 = load ptr, ptr %7, align 8, !tbaa !4
  %81 = getelementptr inbounds nuw %struct.AVCodecContext, ptr %80, i32 0, i32 71
  %82 = getelementptr inbounds nuw %struct.AVChannelLayout, ptr %81, i32 0, i32 1
  %83 = load i32, ptr %82, align 4, !tbaa !34
  %84 = load i32, ptr %14, align 4, !tbaa !33
  %85 = icmp ne i32 %83, %84
  br i1 %85, label %86, label %96

86:                                               ; preds = %79
  %87 = load ptr, ptr %7, align 8, !tbaa !4
  %88 = getelementptr inbounds nuw %struct.AVCodecContext, ptr %87, i32 0, i32 71
  call void @av_channel_layout_uninit(ptr noundef %88)
  %89 = load ptr, ptr %7, align 8, !tbaa !4
  %90 = getelementptr inbounds nuw %struct.AVCodecContext, ptr %89, i32 0, i32 71
  %91 = getelementptr inbounds nuw %struct.AVChannelLayout, ptr %90, i32 0, i32 0
  store i32 0, ptr %91, align 8, !tbaa !63
  %92 = load i32, ptr %14, align 4, !tbaa !33
  %93 = load ptr, ptr %7, align 8, !tbaa !4
  %94 = getelementptr inbounds nuw %struct.AVCodecContext, ptr %93, i32 0, i32 71
  %95 = getelementptr inbounds nuw %struct.AVChannelLayout, ptr %94, i32 0, i32 1
  store i32 %92, ptr %95, align 4, !tbaa !34
  br label %96

96:                                               ; preds = %86, %79
  %97 = load ptr, ptr %8, align 8, !tbaa !47
  %98 = getelementptr inbounds i8, ptr %97, i64 8
  %99 = load i32, ptr %98, align 1, !tbaa !50
  %100 = call i32 @av_bswap32(i32 noundef %99) #9
  %101 = load ptr, ptr %7, align 8, !tbaa !4
  %102 = getelementptr inbounds nuw %struct.AVCodecContext, ptr %101, i32 0, i32 69
  store i32 %100, ptr %102, align 8, !tbaa !64
  %103 = load ptr, ptr %7, align 8, !tbaa !4
  %104 = getelementptr inbounds nuw %struct.AVCodecContext, ptr %103, i32 0, i32 69
  %105 = load i32, ptr %104, align 8, !tbaa !64
  %106 = icmp slt i32 %105, 1
  br i1 %106, label %116, label %107

107:                                              ; preds = %96
  %108 = load ptr, ptr %7, align 8, !tbaa !4
  %109 = getelementptr inbounds nuw %struct.AVCodecContext, ptr %108, i32 0, i32 69
  %110 = load i32, ptr %109, align 8, !tbaa !64
  %111 = load i32, ptr %14, align 4, !tbaa !33
  %112 = mul nsw i32 %111, 18
  %113 = mul nsw i32 %112, 8
  %114 = sdiv i32 2147483647, %113
  %115 = icmp sgt i32 %110, %114
  br i1 %115, label %116, label %117

116:                                              ; preds = %107, %96
  store i32 -1094995529, ptr %6, align 4
  store i32 1, ptr %15, align 4
  br label %145

117:                                              ; preds = %107
  %118 = load ptr, ptr %7, align 8, !tbaa !4
  %119 = getelementptr inbounds nuw %struct.AVCodecContext, ptr %118, i32 0, i32 69
  %120 = load i32, ptr %119, align 8, !tbaa !64
  %121 = load i32, ptr %14, align 4, !tbaa !33
  %122 = mul nsw i32 %120, %121
  %123 = mul nsw i32 %122, 18
  %124 = mul nsw i32 %123, 8
  %125 = sdiv i32 %124, 32
  %126 = sext i32 %125 to i64
  %127 = load ptr, ptr %7, align 8, !tbaa !4
  %128 = getelementptr inbounds nuw %struct.AVCodecContext, ptr %127, i32 0, i32 9
  store i64 %126, ptr %128, align 8, !tbaa !65
  %129 = load ptr, ptr %11, align 8, !tbaa !41
  %130 = icmp ne ptr %129, null
  br i1 %130, label %131, label %142

131:                                              ; preds = %117
  %132 = load ptr, ptr %8, align 8, !tbaa !47
  %133 = getelementptr inbounds i8, ptr %132, i64 16
  %134 = load i16, ptr %133, align 1, !tbaa !50
  %135 = call zeroext i16 @av_bswap16(i16 noundef zeroext %134) #9
  %136 = zext i16 %135 to i32
  store i32 %136, ptr %13, align 4, !tbaa !33
  %137 = load i32, ptr %13, align 4, !tbaa !33
  %138 = load ptr, ptr %7, align 8, !tbaa !4
  %139 = getelementptr inbounds nuw %struct.AVCodecContext, ptr %138, i32 0, i32 69
  %140 = load i32, ptr %139, align 8, !tbaa !64
  %141 = load ptr, ptr %11, align 8, !tbaa !41
  call void @ff_adx_calculate_coeffs(i32 noundef %137, i32 noundef %140, i32 noundef 12, ptr noundef %141)
  br label %142

142:                                              ; preds = %131, %117
  %143 = load i32, ptr %12, align 4, !tbaa !33
  %144 = load ptr, ptr %10, align 8, !tbaa !41
  store i32 %143, ptr %144, align 4, !tbaa !33
  store i32 0, ptr %6, align 4
  store i32 1, ptr %15, align 4
  br label %145

145:                                              ; preds = %142, %116, %78, %66, %47, %25, %18
  call void @llvm.lifetime.end.p0(i64 4, ptr %14) #8
  call void @llvm.lifetime.end.p0(i64 4, ptr %13) #8
  call void @llvm.lifetime.end.p0(i64 4, ptr %12) #8
  %146 = load i32, ptr %6, align 4
  ret i32 %146
}