; Function Attrs: nounwind uwtable
define internal fastcc range(i32 -1163346256, 1) i32 @adx_decode_header(ptr noundef %0, ptr noundef readonly captures(none) %1, i32 noundef %2, ptr noundef nonnull writeonly captures(none) %3, ptr noundef %4) unnamed_addr #1 {
  %6 = icmp slt i32 %2, 24
  br i1 %6, label %62, label %7

7:                                                ; preds = %5
  %8 = load i16, ptr %1, align 1, !tbaa !39
  %.not = icmp eq i16 %8, 128
  br i1 %.not, label %9, label %62

9:                                                ; preds = %7
  %10 = getelementptr inbounds nuw i8, ptr %1, i64 2
  %11 = load i16, ptr %10, align 1, !tbaa !39
  %12 = tail call i16 @llvm.bswap.i16(i16 %11)
  %13 = zext i16 %12 to i32
  %14 = add nuw nsw i32 %13, 4
  %15 = icmp samesign uge i32 %2, %14
  %16 = icmp ugt i16 %12, 1
  %or.cond = and i1 %16, %15
  br i1 %or.cond, label %17, label %21

17:                                               ; preds = %9
  %18 = zext nneg i32 %14 to i64
  %19 = getelementptr inbounds nuw i8, ptr %1, i64 %18
  %20 = getelementptr inbounds i8, ptr %19, i64 -6
  %bcmp = tail call i32 @bcmp(ptr noundef nonnull dereferenceable(6) %20, ptr noundef nonnull dereferenceable(6) @.str.3, i64 6)
  %.not44 = icmp eq i32 %bcmp, 0
  br i1 %.not44, label %21, label %62

21:                                               ; preds = %17, %9
  %22 = getelementptr inbounds nuw i8, ptr %1, i64 4
  %23 = load i8, ptr %22, align 1, !tbaa !39
  %.not45 = icmp eq i8 %23, 3
  br i1 %.not45, label %24, label %30

24:                                               ; preds = %21
  %25 = getelementptr inbounds nuw i8, ptr %1, i64 5
  %26 = load i8, ptr %25, align 1, !tbaa !39
  %.not46 = icmp eq i8 %26, 18
  br i1 %.not46, label %27, label %30

27:                                               ; preds = %24
  %28 = getelementptr inbounds nuw i8, ptr %1, i64 6
  %29 = load i8, ptr %28, align 1, !tbaa !39
  %.not47 = icmp eq i8 %29, 4
  br i1 %.not47, label %31, label %30

30:                                               ; preds = %27, %24, %21
  tail call void (ptr, ptr, ...) @avpriv_request_sample(ptr noundef %0, ptr noundef nonnull @.str.4) #8
  br label %62

31:                                               ; preds = %27
  %32 = getelementptr inbounds nuw i8, ptr %1, i64 7
  %33 = load i8, ptr %32, align 1, !tbaa !39
  %34 = zext i8 %33 to i32
  %35 = add i8 %33, -7
  %or.cond3 = icmp ult i8 %35, -6
  br i1 %or.cond3, label %62, label %36

36:                                               ; preds = %31
  %37 = getelementptr inbounds nuw i8, ptr %0, i64 356
  %38 = load i32, ptr %37, align 4, !tbaa !29
  %.not48 = icmp eq i32 %38, %34
  br i1 %.not48, label %41, label %39

39:                                               ; preds = %36
  %40 = getelementptr inbounds nuw i8, ptr %0, i64 352
  tail call void @av_channel_layout_uninit(ptr noundef nonnull %40) #8
  store i32 0, ptr %40, align 8, !tbaa !56
  store i32 %34, ptr %37, align 4, !tbaa !29
  br label %41

41:                                               ; preds = %39, %36
  %42 = getelementptr inbounds nuw i8, ptr %1, i64 8
  %43 = load i32, ptr %42, align 1, !tbaa !39
  %44 = tail call i32 @llvm.bswap.i32(i32 %43)
  %45 = getelementptr inbounds nuw i8, ptr %0, i64 344
  store i32 %44, ptr %45, align 8, !tbaa !57
  %46 = icmp slt i32 %44, 1
  br i1 %46, label %62, label %47

47:                                               ; preds = %41
  %48 = mul nuw nsw i32 %34, 144
  %49 = udiv i32 2147483647, %48
  %50 = icmp samesign ugt i32 %44, %49
  br i1 %50, label %62, label %51

51:                                               ; preds = %47
  %52 = mul i32 %48, %44
  %53 = lshr i32 %52, 5
  %54 = zext nneg i32 %53 to i64
  %55 = getelementptr inbounds nuw i8, ptr %0, i64 56
  store i64 %54, ptr %55, align 8, !tbaa !58
  %.not49 = icmp eq ptr %4, null
  br i1 %.not49, label %61, label %56

56:                                               ; preds = %51
  %57 = getelementptr inbounds nuw i8, ptr %1, i64 16
  %58 = load i16, ptr %57, align 1, !tbaa !39
  %59 = tail call i16 @llvm.bswap.i16(i16 %58)
  %60 = zext i16 %59 to i32
  tail call void @ff_adx_calculate_coeffs(i32 noundef %60, i32 noundef %44, i32 noundef 12, ptr noundef nonnull %4) #8
  br label %61

61:                                               ; preds = %56, %51
  store i32 %14, ptr %3, align 4, !tbaa !38
  br label %62

62:                                               ; preds = %41, %47, %31, %17, %7, %5, %61, %30
  %.0 = phi i32 [ -1163346256, %30 ], [ 0, %61 ], [ -1094995529, %5 ], [ -1094995529, %7 ], [ -1094995529, %17 ], [ -1094995529, %31 ], [ -1094995529, %47 ], [ -1094995529, %41 ]
  ret i32 %.0
}